target datalayout = "e-m:e-p270:32:32-p271:32:32-p272:64:64-i64:64-i128:128-f80:128-n8:16:32:64-S128"
target triple = "x86_64-unknown-linux-gnu"

%struct.anon.86 = type { ptr, i64 }
%"class.absl::Duration" = type { %"class.absl::Duration::HiRep", i32 }
%"class.absl::Duration::HiRep" = type { i32, i32 }
%"class.std::_Function_base" = type { %"union.std::_Any_data", ptr }
%"union.std::_Any_data" = type { %"union.std::_Nocopy_types" }
%"union.std::_Nocopy_types" = type { { i64, i64 } }
%"class.std::function.318" = type { %"class.std::_Function_base", ptr }
%class.anon.321 = type <{ %"class.std::function.318", %"class.absl::Duration", [4 x i8] }>

; Function Attrs: mustprogress nounwind uwtable
define linkonce_odr dso_local noundef zeroext i1 @_ZNKSt14_Function_base8_M_emptyEv(ptr noundef nonnull align 8 dereferenceable(24) %this) #7 comdat align 2 {
entry:
  %this.addr = alloca ptr, align 8
  store ptr %this, ptr %this.addr, align 8
  %this1 = load ptr, ptr %this.addr, align 8
  %_M_manager = getelementptr inbounds %"class.std::_Function_base", ptr %this1, i32 0, i32 1
  %0 = load ptr, ptr %_M_manager, align 8
  %tobool = icmp ne ptr %0, null
  %lnot = xor i1 %tobool, true
  ret i1 %lnot
}

; Function Attrs: mustprogress uwtable
define linkonce_odr dso_local void @_ZNKSt8functionIFvvEEclEv(ptr noundef nonnull align 8 dereferenceable(32) %this) #4 comdat align 2 {
entry:
  %this.addr = alloca ptr, align 8
  store ptr %this, ptr %this.addr, align 8
  %this1 = load ptr, ptr %this.addr, align 8
  %call = call noundef zeroext i1 @_ZNKSt14_Function_base8_M_emptyEv(ptr noundef nonnull align 8 dereferenceable(24) %this1)
  br i1 %call, label %if.then, label %if.end

if.then:                                          ; preds = %entry
  call void @_ZSt25__throw_bad_function_callv() #26
  unreachable

if.end:                                           ; preds = %entry
  %_M_invoker = getelementptr inbounds %"class.std::function.318", ptr %this1, i32 0, i32 1
  %0 = load ptr, ptr %_M_invoker, align 8
  %_M_functor = getelementptr inbounds %"class.std::_Function_base", ptr %this1, i32 0, i32 0
  call void %0(ptr noundef nonnull align 8 dereferenceable(16) %_M_functor)
  ret void
}

; Function Attrs: mustprogress uwtable
define linkonce_odr dso_local void @_ZN4absl8SleepForENS_8DurationE(i64 %duration.coerce0, i32 %duration.coerce1) #4 comdat {
entry:
  %duration = alloca %"class.absl::Duration", align 4
  %coerce = alloca { i64, i32 }, align 4
  %agg.tmp = alloca %"class.absl::Duration", align 4
  %agg.tmp.coerce = alloca { i64, i32 }, align 4
  %0 = getelementptr inbounds { i64, i32 }, ptr %coerce, i32 0, i32 0
  store i64 %duration.coerce0, ptr %0, align 4
  %1 = getelementptr inbounds { i64, i32 }, ptr %coerce, i32 0, i32 1
  store i32 %duration.coerce1, ptr %1, align 4
  call void @llvm.memcpy.p0.p0.i64(ptr align 4 %duration, ptr align 4 %coerce, i64 12, i1 false)
  call void @llvm.memcpy.p0.p0.i64(ptr align 4 %agg.tmp, ptr align 4 %duration, i64 12, i1 false)
  call void @llvm.memcpy.p0.p0.i64(ptr align 4 %agg.tmp.coerce, ptr align 4 %agg.tmp, i64 12, i1 false)
  %2 = getelementptr inbounds { i64, i32 }, ptr %agg.tmp.coerce, i32 0, i32 0
  %3 = load i64, ptr %2, align 4
  %4 = getelementptr inbounds { i64, i32 }, ptr %agg.tmp.coerce, i32 0, i32 1
  %5 = load i32, ptr %4, align 4
  call void @AbslInternalSleepFor(i64 %3, i32 %5)
  ret void
}

; Function Attrs: mustprogress uwtable
define internal void @"_ZZN12_GLOBAL__N_113ScheduleAfterEPN4absl24synchronization_internal10ThreadPoolENS0_8DurationERKSt8functionIFvvEEENK3$_0clEv"(ptr noundef nonnull align 8 dereferenceable(44) %this) #4 align 2 {
entry:
  %this.addr = alloca ptr, align 8
  %agg.tmp = alloca %"class.absl::Duration", align 4
  %agg.tmp.coerce = alloca { i64, i32 }, align 4
  store ptr %this, ptr %this.addr, align 8
  %this1 = load ptr, ptr %this.addr, align 8
  %0 = getelementptr inbounds %class.anon.321, ptr %this1, i32 0, i32 1
  call void @llvm.memcpy.p0.p0.i64(ptr align 4 %agg.tmp, ptr align 8 %0, i64 12, i1 false)
  call void @llvm.memcpy.p0.p0.i64(ptr align 4 %agg.tmp.coerce, ptr align 4 %agg.tmp, i64 12, i1 false)
  %1 = getelementptr inbounds { i64, i32 }, ptr %agg.tmp.coerce, i32 0, i32 0
  %2 = load i64, ptr %1, align 4
  %3 = getelementptr inbounds { i64, i32 }, ptr %agg.tmp.coerce, i32 0, i32 1
  %4 = load i32, ptr %3, align 4
  call void @_ZN4absl8SleepForENS_8DurationE(i64 %2, i32 %4)
  %5 = getelementptr inbounds %class.anon.321, ptr %this1, i32 0, i32 0
  call void @_ZNKSt8functionIFvvEEclEv(ptr noundef nonnull align 8 dereferenceable(32) %5)
  ret void
}

; Function Attrs: mustprogress uwtable
define internal void @"_ZSt13__invoke_implIvRZN12_GLOBAL__N_113ScheduleAfterEPN4absl24synchronization_internal10ThreadPoolENS1_8DurationERKSt8functionIFvvEEE3$_0JEET_St14__invoke_otherOT0_DpOT1_"(ptr noundef nonnull align 8 dereferenceable(44) %__f) #4 {
entry:
  %__f.addr = alloca ptr, align 8
  store ptr %__f, ptr %__f.addr, align 8
  %0 = load ptr, ptr %__f.addr, align 8
  call void @"_ZZN12_GLOBAL__N_113ScheduleAfterEPN4absl24synchronization_internal10ThreadPoolENS0_8DurationERKSt8functionIFvvEEENK3$_0clEv"(ptr noundef nonnull align 8 dereferenceable(44) %0)
  ret void
}

; Function Attrs: mustprogress uwtable
define internal void @"_ZSt8__invokeIRZN12_GLOBAL__N_113ScheduleAfterEPN4absl24synchronization_internal10ThreadPoolENS1_8DurationERKSt8functionIFvvEEE3$_0JEENSt15__invoke_resultIT_JDpT0_EE4typeEOSE_DpOSF_"(ptr noundef nonnull align 8 dereferenceable(44) %__fn) #4 {
entry:
  %__fn.addr = alloca ptr, align 8
  store ptr %__fn, ptr %__fn.addr, align 8
  %0 = load ptr, ptr %__fn.addr, align 8
  call void @"_ZSt13__invoke_implIvRZN12_GLOBAL__N_113ScheduleAfterEPN4absl24synchronization_internal10ThreadPoolENS1_8DurationERKSt8functionIFvvEEE3$_0JEET_St14__invoke_otherOT0_DpOT1_"(ptr noundef nonnull align 8 dereferenceable(44) %0)
  ret void
}

; Function Attrs: mustprogress uwtable
define internal void @"_ZSt6invokeIRZN12_GLOBAL__N_113ScheduleAfterEPN4absl24synchronization_internal10ThreadPoolENS1_8DurationERKSt8functionIFvvEEE3$_0JEENSt13invoke_resultIT_JDpT0_EE4typeEOSE_DpOSF_"(ptr noundef nonnull align 8 dereferenceable(44) %__fn) #4 {
entry:
  %__fn.addr = alloca ptr, align 8
  store ptr %__fn, ptr %__fn.addr, align 8
  %0 = load ptr, ptr %__fn.addr, align 8
  call void @"_ZSt8__invokeIRZN12_GLOBAL__N_113ScheduleAfterEPN4absl24synchronization_internal10ThreadPoolENS1_8DurationERKSt8functionIFvvEEE3$_0JEENSt15__invoke_resultIT_JDpT0_EE4typeEOSE_DpOSF_"(ptr noundef nonnull align 8 dereferenceable(44) %0)
  ret void
}

; Function Attrs: mustprogress uwtable
define internal void @"_ZN4absl22internal_any_invocable7InvokeRIvRZN12_GLOBAL__N_113ScheduleAfterEPNS_24synchronization_internal10ThreadPoolENS_8DurationERKSt8functionIFvvEEE3$_0JEvEEvOT0_DpOT1_"(ptr noundef nonnull align 8 dereferenceable(44) %f) #4 {
entry:
  %f.addr = alloca ptr, align 8
  store ptr %f, ptr %f.addr, align 8
  %0 = load ptr, ptr %f.addr, align 8
  call void @"_ZSt6invokeIRZN12_GLOBAL__N_113ScheduleAfterEPN4absl24synchronization_internal10ThreadPoolENS1_8DurationERKSt8functionIFvvEEE3$_0JEENSt13invoke_resultIT_JDpT0_EE4typeEOSE_DpOSF_"(ptr noundef nonnull align 8 dereferenceable(44) %0)
  ret void
}

; Function Attrs: mustprogress uwtable
define internal void @"_ZN4absl22internal_any_invocable13RemoteInvokerILb0EvRZN12_GLOBAL__N_113ScheduleAfterEPNS_24synchronization_internal10ThreadPoolENS_8DurationERKSt8functionIFvvEEE3$_0JEEET0_PNS0_15TypeErasedStateEDpNS0_18ForwardedParameterIT2_E4typeE"(ptr noundef %state) #4 {
entry:
  %state.addr = alloca ptr, align 8
  %f = alloca ptr, align 8
  store ptr %state, ptr %state.addr, align 8
  %0 = load ptr, ptr %state.addr, align 8
  %target = getelementptr inbounds %struct.anon.86, ptr %0, i32 0, i32 0
  %1 = load ptr, ptr %target, align 16
  store ptr %1, ptr %f, align 8
  %2 = load ptr, ptr %f, align 8
  call void @"_ZN4absl22internal_any_invocable7InvokeRIvRZN12_GLOBAL__N_113ScheduleAfterEPNS_24synchronization_internal10ThreadPoolENS_8DurationERKSt8functionIFvvEEE3$_0JEvEEvOT0_DpOT1_"(ptr noundef nonnull align 8 dereferenceable(44) %2)
  ret void
}