; Function Attrs: mustprogress uwtable
define internal void @"_ZN4absl22internal_any_invocable13RemoteInvokerILb0EvRZN12_GLOBAL__N_113ScheduleAfterEPNS_24synchronization_internal10ThreadPoolENS_8DurationERKSt8functionIFvvEEE3$_0JEEET0_PNS0_15TypeErasedStateEDpNS0_18ForwardedParameterIT2_E4typeE"(ptr nocapture noundef readonly %state) #3 {
entry:
  %0 = load ptr, ptr %state, align 16
  %1 = getelementptr inbounds i8, ptr %0, i64 32
  %agg.tmp.sroa.0.0.copyload.i.i.i.i.i = load i64, ptr %1, align 8
  %agg.tmp.sroa.2.0..sroa_idx.i.i.i.i.i = getelementptr inbounds i8, ptr %0, i64 40
  %agg.tmp.sroa.2.0.copyload.i.i.i.i.i = load i32, ptr %agg.tmp.sroa.2.0..sroa_idx.i.i.i.i.i, align 8
  tail call void @AbslInternalSleepFor(i64 %agg.tmp.sroa.0.0.copyload.i.i.i.i.i, i32 %agg.tmp.sroa.2.0.copyload.i.i.i.i.i)
  %_M_manager.i.i.i.i.i.i.i = getelementptr inbounds i8, ptr %0, i64 16
  %2 = load ptr, ptr %_M_manager.i.i.i.i.i.i.i, align 8
  %tobool.not.i.i.i.i.i.i.i = icmp eq ptr %2, null
  br i1 %tobool.not.i.i.i.i.i.i.i, label %if.then.i.i.i.i.i.i, label %"_ZN4absl22internal_any_invocable7InvokeRIvRZN12_GLOBAL__N_113ScheduleAfterEPNS_24synchronization_internal10ThreadPoolENS_8DurationERKSt8functionIFvvEEE3$_0JEvEEvOT0_DpOT1_.exit"

if.then.i.i.i.i.i.i:                              ; preds = %entry
  tail call void @_ZSt25__throw_bad_function_callv() #35
  unreachable

"_ZN4absl22internal_any_invocable7InvokeRIvRZN12_GLOBAL__N_113ScheduleAfterEPNS_24synchronization_internal10ThreadPoolENS_8DurationERKSt8functionIFvvEEE3$_0JEvEEvOT0_DpOT1_.exit": ; preds = %entry
  %_M_invoker.i.i.i.i.i.i = getelementptr inbounds i8, ptr %0, i64 24
  %3 = load ptr, ptr %_M_invoker.i.i.i.i.i.i, align 8
  tail call void %3(ptr noundef nonnull align 8 dereferenceable(16) %0)
  ret void
}